; Function Attrs: nounwind uwtable
define internal noundef ptr @lxb_html_tokenizer_state_char_ref_ambiguous_ampersand(ptr nocapture noundef %0, ptr noundef returned %1, ptr nocapture readnone %2) #1 {
  %4 = load i8, ptr %1, align 1
  %5 = icmp eq i8 %4, 59
  br i1 %5, label %6, label %10

6:                                                ; preds = %3
  %7 = getelementptr inbounds i8, ptr %0, i64 88
  %8 = load ptr, ptr %7, align 8
  %9 = tail call ptr @lxb_html_tokenizer_error_add(ptr noundef %8, ptr noundef nonnull %1, i32 noundef 48) #5
  br label %10

10:                                               ; preds = %6, %3
  %11 = getelementptr inbounds i8, ptr %0, i64 8
  %12 = load ptr, ptr %11, align 8
  store ptr %12, ptr %0, align 8
  ret ptr %1
}